; Function Attrs: nounwind uwtable
define ptr @l_Lake_instToExprSemVerCore___lambda__1(ptr noundef %0) #0 {
  %2 = getelementptr inbounds nuw i8, ptr %0, i64 8
  %3 = load ptr, ptr %2, align 8, !tbaa !4
  %4 = ptrtoint ptr %3 to i64
  %5 = and i64 %4, 1
  %.not = icmp eq i64 %5, 0
  br i1 %.not, label %6, label %lean_inc.exit

6:                                                ; preds = %1
  %.val.i = load i32, ptr %3, align 4, !tbaa !8
  %7 = icmp sgt i32 %.val.i, 0
  br i1 %7, label %8, label %10, !prof !11

8:                                                ; preds = %6
  %9 = add nuw i32 %.val.i, 1
  store i32 %9, ptr %3, align 4, !tbaa !8
  br label %lean_inc.exit

10:                                               ; preds = %6
  %.not.i32 = icmp eq i32 %.val.i, 0
  br i1 %.not.i32, label %lean_inc.exit, label %11

11:                                               ; preds = %10
  tail call void @lean_inc_ref_cold(ptr noundef nonnull %3) #4
  br label %lean_inc.exit

lean_inc.exit:                                    ; preds = %11, %10, %8, %1
  %12 = tail call ptr @l_Lean_mkNatLit(ptr noundef %3) #4
  %13 = getelementptr inbounds nuw i8, ptr %0, i64 16
  %14 = load ptr, ptr %13, align 8, !tbaa !4
  %15 = ptrtoint ptr %14 to i64
  %16 = and i64 %15, 1
  %.not41 = icmp eq i64 %16, 0
  br i1 %.not41, label %17, label %lean_inc.exit27

17:                                               ; preds = %lean_inc.exit
  %.val.i33 = load i32, ptr %14, align 4, !tbaa !8
  %18 = icmp sgt i32 %.val.i33, 0
  br i1 %18, label %19, label %21, !prof !11

19:                                               ; preds = %17
  %20 = add nuw i32 %.val.i33, 1
  store i32 %20, ptr %14, align 4, !tbaa !8
  br label %lean_inc.exit27

21:                                               ; preds = %17
  %.not.i34 = icmp eq i32 %.val.i33, 0
  br i1 %.not.i34, label %lean_inc.exit27, label %22

22:                                               ; preds = %21
  tail call void @lean_inc_ref_cold(ptr noundef nonnull %14) #4
  br label %lean_inc.exit27

lean_inc.exit27:                                  ; preds = %22, %21, %19, %lean_inc.exit
  %23 = tail call ptr @l_Lean_mkNatLit(ptr noundef %14) #4
  %24 = getelementptr inbounds nuw i8, ptr %0, i64 24
  %25 = load ptr, ptr %24, align 8, !tbaa !4
  %26 = ptrtoint ptr %25 to i64
  %27 = and i64 %26, 1
  %.not42 = icmp eq i64 %27, 0
  br i1 %.not42, label %28, label %lean_inc.exit28

28:                                               ; preds = %lean_inc.exit27
  %.val.i36 = load i32, ptr %25, align 4, !tbaa !8
  %29 = icmp sgt i32 %.val.i36, 0
  br i1 %29, label %30, label %32, !prof !11

30:                                               ; preds = %28
  %31 = add nuw i32 %.val.i36, 1
  store i32 %31, ptr %25, align 4, !tbaa !8
  br label %lean_inc.exit28

32:                                               ; preds = %28
  %.not.i37 = icmp eq i32 %.val.i36, 0
  br i1 %.not.i37, label %lean_inc.exit28, label %33

33:                                               ; preds = %32
  tail call void @lean_inc_ref_cold(ptr noundef nonnull %25) #4
  br label %lean_inc.exit28

lean_inc.exit28:                                  ; preds = %33, %32, %30, %lean_inc.exit27
  %34 = ptrtoint ptr %0 to i64
  %35 = and i64 %34, 1
  %.not43 = icmp eq i64 %35, 0
  br i1 %.not43, label %36, label %lean_dec.exit

36:                                               ; preds = %lean_inc.exit28
  %37 = load i32, ptr %0, align 4, !tbaa !8
  %38 = icmp sgt i32 %37, 1
  br i1 %38, label %39, label %41, !prof !11

39:                                               ; preds = %36
  %40 = add nsw i32 %37, -1
  store i32 %40, ptr %0, align 4, !tbaa !8
  br label %lean_dec.exit

41:                                               ; preds = %36
  %.not.i30 = icmp eq i32 %37, 0
  br i1 %.not.i30, label %lean_dec.exit, label %42

42:                                               ; preds = %41
  tail call void @lean_dec_ref_cold(ptr noundef nonnull %0) #4
  br label %lean_dec.exit

lean_dec.exit:                                    ; preds = %42, %41, %39, %lean_inc.exit28
  %43 = tail call ptr @l_Lean_mkNatLit(ptr noundef %25) #4
  tail call void @lean_inc_heartbeat() #4
  %44 = tail call noalias ptr @mi_malloc_small(i64 noundef 24) #4
  %45 = icmp eq ptr %44, null
  br i1 %45, label %46, label %lean_alloc_ctor.exit

46:                                               ; preds = %lean_dec.exit
  tail call void @lean_internal_panic_out_of_memory() #5
  unreachable

lean_alloc_ctor.exit:                             ; preds = %lean_dec.exit
  %47 = getelementptr inbounds nuw i8, ptr %44, i64 4
  store i32 1, ptr %44, align 4, !tbaa !8
  store i32 16908312, ptr %47, align 4
  %48 = getelementptr inbounds nuw i8, ptr %44, i64 8
  store ptr %43, ptr %48, align 8, !tbaa !4
  %49 = getelementptr inbounds nuw i8, ptr %44, i64 16
  store ptr inttoptr (i64 1 to ptr), ptr %49, align 8, !tbaa !4
  tail call void @lean_inc_heartbeat() #4
  %50 = tail call noalias ptr @mi_malloc_small(i64 noundef 24) #4
  %51 = icmp eq ptr %50, null
  br i1 %51, label %52, label %lean_alloc_ctor.exit39

52:                                               ; preds = %lean_alloc_ctor.exit
  tail call void @lean_internal_panic_out_of_memory() #5
  unreachable

lean_alloc_ctor.exit39:                           ; preds = %lean_alloc_ctor.exit
  %53 = getelementptr inbounds nuw i8, ptr %50, i64 4
  store i32 1, ptr %50, align 4, !tbaa !8
  store i32 16908312, ptr %53, align 4
  %54 = getelementptr inbounds nuw i8, ptr %50, i64 8
  store ptr %23, ptr %54, align 8, !tbaa !4
  %55 = getelementptr inbounds nuw i8, ptr %50, i64 16
  store ptr %44, ptr %55, align 8, !tbaa !4
  tail call void @lean_inc_heartbeat() #4
  %56 = tail call noalias ptr @mi_malloc_small(i64 noundef 24) #4
  %57 = icmp eq ptr %56, null
  br i1 %57, label %58, label %lean_alloc_ctor.exit40

58:                                               ; preds = %lean_alloc_ctor.exit39
  tail call void @lean_internal_panic_out_of_memory() #5
  unreachable

lean_alloc_ctor.exit40:                           ; preds = %lean_alloc_ctor.exit39
  %59 = getelementptr inbounds nuw i8, ptr %56, i64 4
  store i32 1, ptr %56, align 4, !tbaa !8
  store i32 16908312, ptr %59, align 4
  %60 = getelementptr inbounds nuw i8, ptr %56, i64 8
  store ptr %12, ptr %60, align 8, !tbaa !4
  %61 = getelementptr inbounds nuw i8, ptr %56, i64 16
  store ptr %50, ptr %61, align 8, !tbaa !4
  %62 = tail call ptr @lean_array_mk(ptr noundef nonnull %56) #4
  %63 = load ptr, ptr @l_Lake_instToExprSemVerCore___lambda__1___closed__5, align 8, !tbaa !4
  %64 = tail call ptr @l_Lean_mkAppN(ptr noundef %63, ptr noundef %62) #4
  %65 = ptrtoint ptr %62 to i64
  %66 = and i64 %65, 1
  %.not44 = icmp eq i64 %66, 0
  br i1 %.not44, label %67, label %lean_dec.exit29

67:                                               ; preds = %lean_alloc_ctor.exit40
  %68 = load i32, ptr %62, align 4, !tbaa !8
  %69 = icmp sgt i32 %68, 1
  br i1 %69, label %70, label %72, !prof !11

70:                                               ; preds = %67
  %71 = add nsw i32 %68, -1
  store i32 %71, ptr %62, align 4, !tbaa !8
  br label %lean_dec.exit29

72:                                               ; preds = %67
  %.not.i = icmp eq i32 %68, 0
  br i1 %.not.i, label %lean_dec.exit29, label %73

73:                                               ; preds = %72
  tail call void @lean_dec_ref_cold(ptr noundef nonnull %62) #4
  br label %lean_dec.exit29

lean_dec.exit29:                                  ; preds = %73, %72, %70, %lean_alloc_ctor.exit40
  ret ptr %64
}